(dp1
S'1'
(dp2
S'nr'
p3
I1
sS'lastValid'
p4
(dp5
S'Cumulative'
p6
I01
sS'Global'
p7
I01
ssS'values'
p8
(dp9
g7
(lp10
F2.15211e-13
aF3.4755400000000001e-13
aF2.7704199999999999e-13
aF2.17055e-13
aF1.8165800000000001e-13
aF1.5427700000000001e-13
aF1.6246999999999999e-13
aF1.60652e-13
aF1.5168300000000001e-13
aF9.67414e-14
aF3.48387e-14
aF1.05639e-13
aF2.8729300000000001e-14
aF8.3483399999999995e-14
aF2.8084399999999999e-14
aF7.4374599999999995e-14
aF2.4372499999999999e-14
aF7.6328300000000005e-14
aF9.7759799999999999e-15
aF1.05376e-13
aF-9.3104699999999992e-15
aF7.5718499999999997e-14
aF2.30537e-14
aF1.7436999999999999e-13
aF1.0132e-13
aF2.9090799999999998e-13
aF-9.9131499999999998e-15
aF3.3656199999999997e-13
aF-2.19243e-13
aF5.9290000000000003e-13
aF-5.7103000000000004e-13
aF8.9419000000000005e-13
aF-1.7647100000000001e-12
aF1.34428e-12
aF-3.0010200000000001e-12
aF2.24758e-12
aF-4.4383300000000001e-12
aF4.2437300000000001e-12
aF-5.6366500000000002e-12
aF7.0496299999999997e-12
aF-9.3389900000000004e-12
aF1.0636e-11
aF-1.3844399999999999e-11
aF1.78163e-11
aF-2.3392399999999999e-11
aF3.1037400000000002e-11
aF-4.2823799999999997e-11
aF4.2157e-11
aF-5.3891300000000002e-11
aF7.2492200000000003e-11
aF-1.00611e-10
aF7.8630000000000004e-11
aF-2.0316199999999999e-10
aF7.3296700000000003e-11
aF-4.3364199999999998e-10
aF-5.2769800000000003e-11
aF-1.4838600000000001e-10
aF-3.44462e-09
aF5.8616200000000003e-09
aF-8.5099099999999992e-09
aF2.23315e-08
aF-6.6593400000000003e-09
aF-5.6366300000000004e-07
aF-2.4848699999999999e-07
aF-1.3068999999999999e-06
aF-1.32322e-06
aF-7.7223299999999995e-07
aF-251782000
asg6
(lp11
F1.44363e-12
aF2.82769e-12
aF9.5113199999999995e-13
aF4.6618199999999996e-12
aF1.1319200000000001e-12
aF4.7288900000000001e-12
aF5.4125800000000001e-13
aF5.1306e-12
aF1.7422200000000001e-14
aF5.9058900000000004e-12
aF2.1524100000000001e-12
aF6.9672600000000003e-12
aF1.6055299999999999e-12
aF8.0257600000000003e-12
aF8.8194299999999997e-14
aF9.6907899999999997e-12
aF-2.2337199999999999e-12
aF1.22559e-11
aF-5.9365499999999998e-12
aF1.6340300000000001e-11
aF-1.1746399999999999e-11
aF2.27549e-11
aF-2.1048e-11
aF3.28489e-11
aF-3.61201e-11
aF4.99468e-11
aF-5.94468e-11
aF7.7135799999999997e-11
aF-9.6194900000000004e-11
aF1.1754500000000001e-10
aF-1.5352499999999999e-10
aF1.77349e-10
aF-2.4109599999999999e-10
aF2.9086700000000003e-10
aF-3.8622499999999998e-10
aF4.5698800000000002e-10
aF-6.1537499999999996e-10
aF7.5248999999999995e-10
aF-1.01407e-09
aF1.2022599999999999e-09
aF-1.6634299999999999e-09
aF1.9834499999999998e-09
aF-2.6818099999999999e-09
aF3.2882500000000001e-09
aF-4.2984e-09
aF5.3082100000000002e-09
aF-7.1052200000000004e-09
aF8.3907500000000002e-09
aF-1.1584299999999999e-08
aF1.3508300000000001e-08
aF-1.86233e-08
aF2.1780099999999999e-08
aF-3.0415099999999997e-08
aF3.58801e-08
aF-4.9880299999999997e-08
aF5.9396700000000003e-08
aF-8.4935199999999997e-08
aF2.8823399999999999e-07
aF-1.98937e-07
aF4.3206999999999998e-07
aF-3.7558300000000001e-07
aF9.4822400000000001e-07
aF-1.3951500000000001e-06
aF-2.5510799999999999e-06
aF-6.6730700000000001e-06
aF-1.3027899999999999e-05
aF-1.6564900000000001e-05
aF-251782000
assS'slaves'
p12
(lp13
sS'times'
p14
(lp15
F5.0030000000000001
aF5.0049999999999999
aF5.0069999999999997
aF5.0090000000000003
aF5.0110000000000001
aF5.0129999999999999
aF5.0149999999999997
aF5.0170000000000003
aF5.0190000000000001
aF5.0209999999999999
aF5.0229999999999997
aF5.0250000000000004
aF5.0270000000000001
aF5.0289999999999999
aF5.0309999999999997
aF5.0330000000000004
aF5.0350000000000001
aF5.0369999999999999
aF5.0389999999999997
aF5.0410000000000004
aF5.0430000000000001
aF5.0449999999999999
aF5.0469999999999997
aF5.0490000000000004
aF5.0510000000000002
aF5.0529999999999999
aF5.0549999999999997
aF5.0570000000000004
aF5.0590000000000002
aF5.0609999999999999
aF5.0629999999999997
aF5.0650000000000004
aF5.0670000000000002
aF5.069
aF5.0709999999999997
aF5.0730000000000004
aF5.0750000000000002
aF5.077
aF5.0789999999999997
aF5.0810000000000004
aF5.0830000000000002
aF5.085
aF5.0869999999999997
aF5.0890000000000004
aF5.0910000000000002
aF5.093
aF5.0949999999999998
aF5.0970000000000004
aF5.0990000000000002
aF5.101
aF5.1029999999999998
aF5.1050000000000004
aF5.1070000000000002
aF5.109
aF5.1109999999999998
aF5.1130000000000004
aF5.1150000000000002
aF5.117
aF5.1189999999999998
aF5.1210000000000004
aF5.1230000000000002
aF5.125
aF5.1269999999999998
aF5.1289999999999996
aF5.1310000000000002
aF5.133
aF5.1349999999999998
aF5.1369999999999996
assS'3'
(dp16
g3
I3
sg4
(dp17
S'p'
I01
ssg8
(dp18
S'p'
(lp19
F233
aF260
aF255
aF268
aF256
aF270
aF272
aF288
aF269
aF274
aF258
aF269
aF260
aF268
aF257
aF268
aF253
aF266
aF245
aF264
aF237
aF252
aF242
aF246
aF246
aF241
aF244
aF242
aF244
aF244
aF249
aF238
aF246
aF237
aF246
aF241
aF241
aF240
aF240
aF239
aF241
aF241
aF241
aF240
aF239
aF237
aF235
aF234
aF231
aF227
aF226
aF224
aF223
aF221
aF219
aF214
aF214
aF209
aF208
aF199
aF197
aF107
aF92
aF69
aF49
aF22
aF16
aF9
assg12
(lp20
sg14
(lp21
F5.0030000000000001
aF5.0049999999999999
aF5.0069999999999997
aF5.0090000000000003
aF5.0110000000000001
aF5.0129999999999999
aF5.0149999999999997
aF5.0170000000000003
aF5.0190000000000001
aF5.0209999999999999
aF5.0229999999999997
aF5.0250000000000004
aF5.0270000000000001
aF5.0289999999999999
aF5.0309999999999997
aF5.0330000000000004
aF5.0350000000000001
aF5.0369999999999999
aF5.0389999999999997
aF5.0410000000000004
aF5.0430000000000001
aF5.0449999999999999
aF5.0469999999999997
aF5.0490000000000004
aF5.0510000000000002
aF5.0529999999999999
aF5.0549999999999997
aF5.0570000000000004
aF5.0590000000000002
aF5.0609999999999999
aF5.0629999999999997
aF5.0650000000000004
aF5.0670000000000002
aF5.069
aF5.0709999999999997
aF5.0730000000000004
aF5.0750000000000002
aF5.077
aF5.0789999999999997
aF5.0810000000000004
aF5.0830000000000002
aF5.085
aF5.0869999999999997
aF5.0890000000000004
aF5.0910000000000002
aF5.093
aF5.0949999999999998
aF5.0970000000000004
aF5.0990000000000002
aF5.101
aF5.1029999999999998
aF5.1050000000000004
aF5.1070000000000002
aF5.109
aF5.1109999999999998
aF5.1130000000000004
aF5.1150000000000002
aF5.117
aF5.1189999999999998
aF5.1210000000000004
aF5.1230000000000002
aF5.125
aF5.1269999999999998
aF5.1289999999999996
aF5.1310000000000002
aF5.133
aF5.1349999999999998
aF5.1369999999999996
assS'2'
(dp22
g3
I2
sg4
(dp23
S'p'
I01
sS'p_final'
p24
I01
sS'p_iterations'
p25
I01
ssg8
(dp26
S'p'
(lp27
F0.103142
aF0.082491400000000006
aF0.068565699999999993
aF0.059817299999999997
aF0.054690599999999999
aF0.052141199999999999
aF0.050685399999999999
aF0.051673299999999998
aF0.053674300000000001
aF0.058423500000000003
aF0.065492400000000006
aF0.075945299999999993
aF0.0897786
aF0.108061
aF0.13165099999999999
aF0.16150500000000001
aF0.198356
aF0.243279
aF0.29526999999999998
aF0.35416500000000001
aF0.41757300000000003
aF0.48455100000000001
aF0.55076099999999995
aF0.61529500000000004
aF0.67498599999999997
aF0.72865899999999995
aF0.775563
aF0.81532000000000004
aF0.84845099999999996
aF0.87558499999999995
aF0.897204
aF0.91440299999999997
aF0.92780200000000002
aF0.938303
aF0.94643699999999997
aF0.95279199999999997
aF0.95768699999999995
aF0.96152400000000005
aF0.96449799999999997
aF0.96687100000000004
aF0.96874099999999996
aF0.97025300000000003
aF0.971472
aF0.97247799999999995
aF0.973302
aF0.97403399999999996
aF0.97465599999999997
aF0.97522200000000003
aF0.97569399999999995
aF0.97623300000000002
aF0.97673500000000002
aF0.97715200000000002
aF0.97752300000000003
aF0.977885
aF0.97806099999999996
aF0.97846200000000005
aF0.97895100000000002
aF0.97798099999999999
aF0.97699100000000005
aF0.97621599999999997
aF0.97473799999999999
aF0.97404100000000005
aF0.97015300000000004
aF0.980464
aF0.94308000000000003
aF0.90838399999999997
aF0.98900100000000002
aF1
asg24
(lp28
F1.7954100000000001e-05
aF2.0082299999999999e-05
aF2.0026799999999999e-05
aF2.06202e-05
aF2.2265000000000001e-05
aF2.28008e-05
aF2.17098e-05
aF2.4181100000000001e-05
aF2.5578299999999999e-05
aF2.55047e-05
aF2.57907e-05
aF2.9413499999999999e-05
aF2.6387700000000001e-05
aF2.9854099999999999e-05
aF3.2506499999999998e-05
aF3.2597700000000001e-05
aF3.8529299999999997e-05
aF4.0503100000000002e-05
aF4.2744399999999997e-05
aF4.6915100000000001e-05
aF5.5334100000000003e-05
aF5.9552899999999997e-05
aF6.3095499999999999e-05
aF6.8457300000000006e-05
aF7.0843699999999994e-05
aF7.4055399999999996e-05
aF7.9983199999999997e-05
aF7.6930599999999998e-05
aF7.9708099999999997e-05
aF8.1604899999999995e-05
aF8.0026799999999998e-05
aF8.4895599999999994e-05
aF8.5728800000000005e-05
aF9.5766800000000006e-05
aF8.6308499999999995e-05
aF9.3194400000000003e-05
aF9.3490400000000002e-05
aF9.2935600000000005e-05
aF9.5615899999999994e-05
aF9.9011800000000006e-05
aF9.7382599999999998e-05
aF9.2807700000000003e-05
aF9.7365099999999994e-05
aF9.7866299999999995e-05
aF0.000102595
aF0.00010888899999999999
aF0.00011100800000000001
aF0.00012234299999999999
aF0.00014140100000000001
aF0.00015198699999999999
aF0.00018129499999999999
aF0.00018437099999999999
aF0.000249841
aF0.00026856699999999999
aF0.00039448800000000002
aF0.00048608599999999999
aF0.00062039099999999998
aF0.00073070899999999996
aF0.00089612899999999996
aF0.00124672
aF0.00162374
aF0.0023058900000000001
aF0.0031892399999999999
aF0.00560072
aF0.00919413
aF0.0588126
aF0.099949099999999999
aF0.097207500000000002
asg25
(lp29
F233
aF260
aF255
aF268
aF256
aF270
aF272
aF288
aF269
aF274
aF258
aF269
aF260
aF268
aF257
aF268
aF253
aF266
aF245
aF264
aF237
aF252
aF242
aF246
aF246
aF241
aF244
aF242
aF244
aF244
aF249
aF238
aF246
aF237
aF246
aF241
aF241
aF240
aF240
aF239
aF241
aF241
aF241
aF240
aF239
aF237
aF235
aF234
aF231
aF227
aF226
aF224
aF223
aF221
aF219
aF214
aF214
aF209
aF208
aF199
aF197
aF107
aF92
aF69
aF49
aF22
aF16
aF9
assg12
(lp30
sg14
(lp31
F5.0030000000000001
aF5.0049999999999999
aF5.0069999999999997
aF5.0090000000000003
aF5.0110000000000001
aF5.0129999999999999
aF5.0149999999999997
aF5.0170000000000003
aF5.0190000000000001
aF5.0209999999999999
aF5.0229999999999997
aF5.0250000000000004
aF5.0270000000000001
aF5.0289999999999999
aF5.0309999999999997
aF5.0330000000000004
aF5.0350000000000001
aF5.0369999999999999
aF5.0389999999999997
aF5.0410000000000004
aF5.0430000000000001
aF5.0449999999999999
aF5.0469999999999997
aF5.0490000000000004
aF5.0510000000000002
aF5.0529999999999999
aF5.0549999999999997
aF5.0570000000000004
aF5.0590000000000002
aF5.0609999999999999
aF5.0629999999999997
aF5.0650000000000004
aF5.0670000000000002
aF5.069
aF5.0709999999999997
aF5.0730000000000004
aF5.0750000000000002
aF5.077
aF5.0789999999999997
aF5.0810000000000004
aF5.0830000000000002
aF5.085
aF5.0869999999999997
aF5.0890000000000004
aF5.0910000000000002
aF5.093
aF5.0949999999999998
aF5.0970000000000004
aF5.0990000000000002
aF5.101
aF5.1029999999999998
aF5.1050000000000004
aF5.1070000000000002
aF5.109
aF5.1109999999999998
aF5.1130000000000004
aF5.1150000000000002
aF5.117
aF5.1189999999999998
aF5.1210000000000004
aF5.1230000000000002
aF5.125
aF5.1269999999999998
aF5.1289999999999996
aF5.1310000000000002
aF5.133
aF5.1349999999999998
aF5.1369999999999996
assS'5'
(dp32
g3
I5
sg4
(dp33
sg8
(dp34
sg12
(lp35
sg14
(lp36
ssS'4'
(dp37
g3
I4
sg4
(dp38
S'cpu'
p39
I00
sS'clock'
p40
I00
ssg8
(dp41
g39
(lp42
F0.45999999999999996
aF0.44999999999999996
aF0.47999999999999998
aF0.5
aF0.47999999999999998
aF0.49000000000000021
aF0.49000000000000021
aF0.48999999999999932
aF0.47000000000000064
aF0.62000000000000011
aF0.5699999999999994
aF0.57000000000000028
aF0.64999999999999947
aF0.62000000000000099
aF0.58000000000000007
aF0.76999999999999957
aF0.54999999999999893
aF0.63000000000000078
aF0.58999999999999986
aF0.66000000000000014
aF0.52999999999999936
aF0.5600000000000005
aF0.50999999999999979
aF0.55000000000000071
aF0.50999999999999979
aF0.58999999999999986
aF0.54000000000000092
aF0.55000000000000071
aF0.51999999999999957
aF0.54999999999999716
aF0.5
aF0.53000000000000114
aF0.51000000000000156
aF0.50999999999999801
aF0.53000000000000114
aF0.55000000000000071
aF0.50999999999999801
aF0.57000000000000028
aF0.51000000000000156
aF0.64999999999999858
aF0.57000000000000028
aF0.53000000000000114
aF0.50999999999999801
aF0.58999999999999986
aF0.5
aF0.57000000000000028
aF0.51999999999999957
aF0.62000000000000099
aF0.51999999999999957
aF0.55000000000000071
aF0.49000000000000199
aF0.54999999999999716
aF0.48000000000000043
aF0.53000000000000114
aF0.48000000000000043
aF0.48999999999999844
aF0.51999999999999957
aF0.48000000000000398
aF0.5
aF0.46999999999999886
aF0.47999999999999687
aF0.34000000000000341
aF0.33999999999999631
aF0.32000000000000028
aF0.28000000000000114
aF0.28000000000000114
aF0.24000000000000199
aF0
asg40
(lp43
F0
aF1
aF0
aF1
aF0
aF1
aF0
aF1
aF0
aF1
aF1
aF0
aF1
aF0
aF1
aF1
aF0
aF1
aF1
aF0
aF1
aF0
aF1
aF0
aF1
aF1
aF0
aF1
aF0
aF1
aF0
aF1
aF0
aF1
aF0
aF1
aF0
aF1
aF0
aF1
aF1
aF0
aF1
aF0
aF1
aF0
aF1
aF0
aF1
aF1
aF0
aF1
aF0
aF1
aF0
aF1
aF0
aF1
aF0
aF1
aF0
aF0
aF1
aF0
aF0
aF1
aF0
aF0
assg12
(lp44
sg14
(lp45
F5.0030000000000001
aF5.0049999999999999
aF5.0069999999999997
aF5.0090000000000003
aF5.0110000000000001
aF5.0129999999999999
aF5.0149999999999997
aF5.0170000000000003
aF5.0190000000000001
aF5.0209999999999999
aF5.0229999999999997
aF5.0250000000000004
aF5.0270000000000001
aF5.0289999999999999
aF5.0309999999999997
aF5.0330000000000004
aF5.0350000000000001
aF5.0369999999999999
aF5.0389999999999997
aF5.0410000000000004
aF5.0430000000000001
aF5.0449999999999999
aF5.0469999999999997
aF5.0490000000000004
aF5.0510000000000002
aF5.0529999999999999
aF5.0549999999999997
aF5.0570000000000004
aF5.0590000000000002
aF5.0609999999999999
aF5.0629999999999997
aF5.0650000000000004
aF5.0670000000000002
aF5.069
aF5.0709999999999997
aF5.0730000000000004
aF5.0750000000000002
aF5.077
aF5.0789999999999997
aF5.0810000000000004
aF5.0830000000000002
aF5.085
aF5.0869999999999997
aF5.0890000000000004
aF5.0910000000000002
aF5.093
aF5.0949999999999998
aF5.0970000000000004
aF5.0990000000000002
aF5.101
aF5.1029999999999998
aF5.1050000000000004
aF5.1070000000000002
aF5.109
aF5.1109999999999998
aF5.1130000000000004
aF5.1150000000000002
aF5.117
aF5.1189999999999998
aF5.1210000000000004
aF5.1230000000000002
aF5.125
aF5.1269999999999998
aF5.1289999999999996
aF5.1310000000000002
aF5.133
aF5.1349999999999998
aF5.1369999999999996
assS'7'
(dp46
g3
I7
sg4
(dp47
S'max'
p48
I01
sS'mean'
p49
I01
ssg8
(dp50
g48
(lp51
F0.0043591899999999998
aF0.0043590699999999996
aF0.0043589400000000004
aF0.0043588100000000003
aF0.0043586700000000003
aF0.0043585400000000002
aF0.0043584100000000001
aF0.00435828
aF0.0043581499999999999
aF0.0043580199999999998
aF0.0043578799999999997
aF0.0043577499999999996
aF0.0043576200000000004
aF0.0043574900000000003
aF0.0043573600000000002
aF0.0043572200000000002
aF0.0043571
aF0.0043569500000000001
aF0.0043568499999999998
aF0.0043566799999999999
aF0.0043566000000000004
aF0.0043563899999999999
aF0.00435637
aF0.00435609
aF0.0043561600000000004
aF0.0043557600000000002
aF0.0043559899999999997
aF0.0043553699999999999
aF0.0043558900000000003
aF0.0043549000000000001
aF0.0043559100000000002
aF0.0043542700000000004
aF0.0043561299999999997
aF0.0043533699999999996
aF0.0043566899999999999
aF0.0043520299999999998
aF0.00435784
aF0.0043499300000000001
aF0.0043599700000000003
aF0.0043465400000000003
aF0.0043637800000000003
aF0.0044825999999999998
aF0.0043704099999999999
aF0.0065462699999999999
aF0.0064320000000000002
aF0.0100287
aF0.010446499999999999
aF0.015899900000000002
aF0.0172748
aF0.0257877
aF0.030211999999999999
aF0.0424152
aF0.052094500000000002
aF0.070316100000000006
aF0.089261199999999999
aF0.11698600000000001
aF0.152863
aF0.196965
aF0.26353100000000002
aF0.33628599999999997
aF0.46313100000000001
aF0.58285600000000004
aF0.866761
aF1.04338
aF1.8862699999999999
aF2.2317999999999998
aF77.599000000000004
aF1.3822e+28
asg49
(lp52
F0.00051618900000000001
aF0.000516188
aF0.00051618699999999998
aF0.00051618699999999998
aF0.00051618599999999997
aF0.00051618499999999995
aF0.00051618400000000004
aF0.00051618400000000004
aF0.00051618300000000003
aF0.00051618200000000001
aF0.000516181
aF0.000516181
aF0.00051617999999999998
aF0.00051617999999999998
aF0.00051617799999999995
aF0.00051617899999999997
aF0.00051617600000000003
aF0.00051617799999999995
aF0.00051617399999999999
aF0.00051617700000000004
aF0.00051617199999999996
aF0.00051617700000000004
aF0.00051616900000000002
aF0.00051617799999999995
aF0.00051616400000000005
aF0.00051617999999999998
aF0.00051615799999999996
aF0.00051618499999999995
aF0.00051614900000000003
aF0.00051619399999999998
aF0.00051613400000000002
aF0.00051621100000000004
aF0.00051610999999999996
aF0.00051623900000000004
aF0.00051606999999999998
aF0.00051628700000000004
aF0.00051600500000000004
aF0.00051653599999999995
aF0.00051589699999999997
aF0.00051721600000000003
aF0.00051611199999999999
aF0.00051856600000000004
aF0.00051750500000000003
aF0.00052135099999999998
aF0.00052094999999999995
aF0.00052684300000000004
aF0.00052781499999999995
aF0.00053716500000000004
aF0.00054125199999999999
aF0.00055581000000000001
aF0.00056677799999999999
aF0.00058911100000000002
aF0.00061325099999999999
aF0.00064889400000000001
aF0.00069533500000000005
aF0.00075511899999999995
aF0.00083780699999999998
aF0.000941627
aF0.0010851599999999999
aF0.0012687499999999999
aF0.00150669
aF0.0018447699999999999
aF0.0022243800000000002
aF0.00285579
aF0.0036955500000000001
aF0.0050937100000000004
aF0.017680000000000001
aF1.2368700000000001e+24
assg12
(lp53
sg14
(lp54
F5.0030000000000001
aF5.0049999999999999
aF5.0069999999999997
aF5.0090000000000003
aF5.0110000000000001
aF5.0129999999999999
aF5.0149999999999997
aF5.0170000000000003
aF5.0190000000000001
aF5.0209999999999999
aF5.0229999999999997
aF5.0250000000000004
aF5.0270000000000001
aF5.0289999999999999
aF5.0309999999999997
aF5.0330000000000004
aF5.0350000000000001
aF5.0369999999999999
aF5.0389999999999997
aF5.0410000000000004
aF5.0430000000000001
aF5.0449999999999999
aF5.0469999999999997
aF5.0490000000000004
aF5.0510000000000002
aF5.0529999999999999
aF5.0549999999999997
aF5.0570000000000004
aF5.0590000000000002
aF5.0609999999999999
aF5.0629999999999997
aF5.0650000000000004
aF5.0670000000000002
aF5.069
aF5.0709999999999997
aF5.0730000000000004
aF5.0750000000000002
aF5.077
aF5.0789999999999997
aF5.0810000000000004
aF5.0830000000000002
aF5.085
aF5.0869999999999997
aF5.0890000000000004
aF5.0910000000000002
aF5.093
aF5.0949999999999998
aF5.0970000000000004
aF5.0990000000000002
aF5.101
aF5.1029999999999998
aF5.1050000000000004
aF5.1070000000000002
aF5.109
aF5.1109999999999998
aF5.1130000000000004
aF5.1150000000000002
aF5.117
aF5.1189999999999998
aF5.1210000000000004
aF5.1230000000000002
aF5.125
aF5.1269999999999998
aF5.1289999999999996
aF5.1310000000000002
aF5.133
aF5.1349999999999998
aF5.1369999999999996
assS'6'
(dp55
g3
I6
sg4
(dp56
sg8
(dp57
sg12
(lp58
sg14
(lp59
ss.(dp60
S'1'
(dp61
g3
I1
sS'data'
p62
I2
sS'spec'
p63
(dp64
S'logscale'
p65
I01
sS'name'
p66
S'Custom01_linear'
p67
sS'with'
p68
S'lines'
p69
sS'expr'
p70
S''
sS'forbidden'
p71
(lp72
S'final'
p73
aS'iterations'
p74
asS'enabled'
p75
I01
sS'theTitle'
p76
S'Residuals'
p77
sS'titles'
p78
(lp79
sS'alternateAxis'
p80
(lp81
sS'raisit'
p82
I00
sS'persist'
p83
I00
sS'xlabel'
p84
S'Time [s]'
p85
sS'type'
p86
S'regular'
p87
sS'accumulation'
p88
S'first'
p89
ssS'id'
p90
S'linear'
p91
ssS'3'
(dp92
g3
I3
sg62
I6
sg63
(dp93
g65
I00
sg66
S'Custom03_bounding'
p94
sS'with'
p95
g69
sg70
S''
sg71
(lp96
sg75
I01
sg76
S'Bounded variables'
p97
sg78
(lp98
sg80
g81
sg82
I00
sg83
I00
sg84
g85
sg86
g87
sg88
g89
ssg90
S'bounding'
p99
ssS'2'
(dp100
g3
I2
sg62
I1
sg63
(dp101
g65
I00
sg66
S'Custom02_continuity'
p102
sS'with'
p103
g69
sg70
S''
sg71
g96
sg75
I01
sg76
S'Continuity'
p104
sg78
(lp105
sg80
(lp106
g7
asg82
I00
sg83
I00
sg84
g85
sg86
g87
sg88
g89
ssg90
S'continuity'
p107
ss.